target datalayout = "e-m:e-p270:32:32-p271:32:32-p272:64:64-i64:64-i128:128-f80:128-n8:16:32:64-S128"
target triple = "x86_64-pc-linux-gnu"

%struct.b2IslandArray = type { ptr, i32, i32 }
%struct.b2Island = type { i32, i32, i32, i32, i32, i32, i32, i32, i32, i32, i32, i32, i32, i32 }
%struct.b2World = type { %struct.b2ArenaAllocator, %struct.b2BroadPhase, %struct.b2ConstraintGraph, %struct.b2IdPool, %struct.b2BodyArray, %struct.b2IdPool, %struct.b2SolverSetArray, %struct.b2IdPool, %struct.b2JointArray, %struct.b2IdPool, %struct.b2ContactArray, %struct.b2IdPool, %struct.b2IslandArray, %struct.b2IdPool, %struct.b2IdPool, %struct.b2ShapeArray, %struct.b2ChainShapeArray, %struct.b2SensorArray, %struct.b2TaskContextArray, %struct.b2SensorTaskContextArray, %struct.b2BodyMoveEventArray, %struct.b2SensorBeginTouchEventArray, %struct.b2ContactBeginTouchEventArray, [2 x %struct.b2SensorEndTouchEventArray], [2 x %struct.b2ContactEndTouchEventArray], i32, %struct.b2ContactHitEventArray, %struct.b2BitSet, %struct.b2BitSet, %struct.b2BitSet, i64, i32, %struct.b2Vec2, float, float, float, float, float, float, float, float, ptr, ptr, i16, %struct.b2Profile, ptr, ptr, ptr, ptr, i32, ptr, ptr, ptr, ptr, ptr, float, i32, i32, i16, i8, i8, i8, i8, i8, i8 }
%struct.b2ArenaAllocator = type { ptr, i32, i32, i32, i32, %struct.b2ArenaEntryArray }
%struct.b2ArenaEntryArray = type { ptr, i32, i32 }
%struct.b2BroadPhase = type { [3 x %struct.b2DynamicTree], i32, %struct.b2HashSet, %struct.b2IntArray, ptr, ptr, i32, %struct.b2AtomicInt, %struct.b2HashSet }
%struct.b2DynamicTree = type { ptr, i32, i32, i32, i32, i32, ptr, ptr, ptr, ptr, i32 }
%struct.b2IntArray = type { ptr, i32, i32 }
%struct.b2AtomicInt = type { i32 }
%struct.b2HashSet = type { ptr, i32, i32 }
%struct.b2ConstraintGraph = type { [12 x %struct.b2GraphColor] }
%struct.b2GraphColor = type { %struct.b2BitSet, %struct.b2ContactSimArray, %struct.b2JointSimArray, %union.anon }
%struct.b2ContactSimArray = type { ptr, i32, i32 }
%struct.b2JointSimArray = type { ptr, i32, i32 }
%union.anon = type { ptr }
%struct.b2BodyArray = type { ptr, i32, i32 }
%struct.b2SolverSetArray = type { ptr, i32, i32 }
%struct.b2JointArray = type { ptr, i32, i32 }
%struct.b2ContactArray = type { ptr, i32, i32 }
%struct.b2IdPool = type { %struct.b2IntArray, i32 }
%struct.b2ShapeArray = type { ptr, i32, i32 }
%struct.b2ChainShapeArray = type { ptr, i32, i32 }
%struct.b2SensorArray = type { ptr, i32, i32 }
%struct.b2TaskContextArray = type { ptr, i32, i32 }
%struct.b2SensorTaskContextArray = type { ptr, i32, i32 }
%struct.b2BodyMoveEventArray = type { ptr, i32, i32 }
%struct.b2SensorBeginTouchEventArray = type { ptr, i32, i32 }
%struct.b2ContactBeginTouchEventArray = type { ptr, i32, i32 }
%struct.b2SensorEndTouchEventArray = type { ptr, i32, i32 }
%struct.b2ContactEndTouchEventArray = type { ptr, i32, i32 }
%struct.b2ContactHitEventArray = type { ptr, i32, i32 }
%struct.b2BitSet = type { ptr, i32, i32 }
%struct.b2Vec2 = type { float, float }
%struct.b2Profile = type { float, float, float, float, float, float, float, float, float, float, float, float, float, float, float, float, float, float, float, float, float, float }
%struct.b2Joint = type { ptr, i32, i32, i32, [2 x %struct.b2JointEdge], i32, i32, i32, i32, float, i32, i16, i8, i8 }
%struct.b2JointEdge = type { i32, i32, i32 }

; Function Attrs: nounwind uwtable
define hidden void @b2ValidateIsland(ptr noundef %0, i32 noundef %1) #0 {
  %3 = alloca ptr, align 8
  %4 = alloca i32, align 4
  store ptr %0, ptr %3, align 8, !tbaa !19
  store i32 %1, ptr %4, align 4, !tbaa !3
  ret void
}

; Function Attrs: inlinehint nounwind uwtable
define internal ptr @b2JointArray_Get(ptr noundef %0, i32 noundef %1) #4 {
  %3 = alloca ptr, align 8
  %4 = alloca i32, align 4
  store ptr %0, ptr %3, align 8, !tbaa !12
  store i32 %1, ptr %4, align 4, !tbaa !3
  %5 = load ptr, ptr %3, align 8, !tbaa !12
  %6 = getelementptr inbounds nuw %struct.b2JointArray, ptr %5, i32 0, i32 0
  %7 = load ptr, ptr %6, align 8, !tbaa !138
  %8 = load i32, ptr %4, align 4, !tbaa !3
  %9 = sext i32 %8 to i64
  %10 = getelementptr inbounds %struct.b2Joint, ptr %7, i64 %9
  ret ptr %10
}

; Function Attrs: inlinehint nounwind uwtable
define internal ptr @b2IslandArray_Get(ptr noundef %0, i32 noundef %1) #4 {
  %3 = alloca ptr, align 8
  %4 = alloca i32, align 4
  store ptr %0, ptr %3, align 8, !tbaa !12
  store i32 %1, ptr %4, align 4, !tbaa !3
  %5 = load ptr, ptr %3, align 8, !tbaa !12
  %6 = getelementptr inbounds nuw %struct.b2IslandArray, ptr %5, i32 0, i32 0
  %7 = load ptr, ptr %6, align 8, !tbaa !7
  %8 = load i32, ptr %4, align 4, !tbaa !3
  %9 = sext i32 %8 to i64
  %10 = getelementptr inbounds %struct.b2Island, ptr %7, i64 %9
  ret ptr %10
}

; Function Attrs: nounwind uwtable
define hidden void @b2UnlinkJoint(ptr noundef %0, ptr noundef %1) #0 {
  %3 = alloca ptr, align 8
  %4 = alloca ptr, align 8
  %5 = alloca i32, align 4
  %6 = alloca ptr, align 8
  %7 = alloca ptr, align 8
  %8 = alloca ptr, align 8
  store ptr %0, ptr %3, align 8, !tbaa !19
  store ptr %1, ptr %4, align 8, !tbaa !122
  call void @llvm.lifetime.start.p0(i64 4, ptr %5) #6
  %9 = load ptr, ptr %4, align 8, !tbaa !122
  %10 = getelementptr inbounds nuw %struct.b2Joint, ptr %9, i32 0, i32 6
  %11 = load i32, ptr %10, align 8, !tbaa !134
  store i32 %11, ptr %5, align 4, !tbaa !3
  call void @llvm.lifetime.start.p0(i64 8, ptr %6) #6
  %12 = load ptr, ptr %3, align 8, !tbaa !19
  %13 = getelementptr inbounds nuw %struct.b2World, ptr %12, i32 0, i32 12
  %14 = load i32, ptr %5, align 4, !tbaa !3
  %15 = call ptr @b2IslandArray_Get(ptr noundef %13, i32 noundef %14)
  store ptr %15, ptr %6, align 8, !tbaa !72
  %16 = load ptr, ptr %4, align 8, !tbaa !122
  %17 = getelementptr inbounds nuw %struct.b2Joint, ptr %16, i32 0, i32 7
  %18 = load i32, ptr %17, align 4, !tbaa !133
  %19 = icmp ne i32 %18, -1
  br i1 %19, label %20, label %32

20:                                               ; preds = %2
  call void @llvm.lifetime.start.p0(i64 8, ptr %7) #6
  %21 = load ptr, ptr %3, align 8, !tbaa !19
  %22 = getelementptr inbounds nuw %struct.b2World, ptr %21, i32 0, i32 8
  %23 = load ptr, ptr %4, align 8, !tbaa !122
  %24 = getelementptr inbounds nuw %struct.b2Joint, ptr %23, i32 0, i32 7
  %25 = load i32, ptr %24, align 4, !tbaa !133
  %26 = call ptr @b2JointArray_Get(ptr noundef %22, i32 noundef %25)
  store ptr %26, ptr %7, align 8, !tbaa !122
  %27 = load ptr, ptr %4, align 8, !tbaa !122
  %28 = getelementptr inbounds nuw %struct.b2Joint, ptr %27, i32 0, i32 8
  %29 = load i32, ptr %28, align 8, !tbaa !130
  %30 = load ptr, ptr %7, align 8, !tbaa !122
  %31 = getelementptr inbounds nuw %struct.b2Joint, ptr %30, i32 0, i32 8
  store i32 %29, ptr %31, align 8, !tbaa !130
  call void @llvm.lifetime.end.p0(i64 8, ptr %7) #6
  br label %32

32:                                               ; preds = %20, %2
  %33 = load ptr, ptr %4, align 8, !tbaa !122
  %34 = getelementptr inbounds nuw %struct.b2Joint, ptr %33, i32 0, i32 8
  %35 = load i32, ptr %34, align 8, !tbaa !130
  %36 = icmp ne i32 %35, -1
  br i1 %36, label %37, label %49

37:                                               ; preds = %32
  call void @llvm.lifetime.start.p0(i64 8, ptr %8) #6
  %38 = load ptr, ptr %3, align 8, !tbaa !19
  %39 = getelementptr inbounds nuw %struct.b2World, ptr %38, i32 0, i32 8
  %40 = load ptr, ptr %4, align 8, !tbaa !122
  %41 = getelementptr inbounds nuw %struct.b2Joint, ptr %40, i32 0, i32 8
  %42 = load i32, ptr %41, align 8, !tbaa !130
  %43 = call ptr @b2JointArray_Get(ptr noundef %39, i32 noundef %42)
  store ptr %43, ptr %8, align 8, !tbaa !122
  %44 = load ptr, ptr %4, align 8, !tbaa !122
  %45 = getelementptr inbounds nuw %struct.b2Joint, ptr %44, i32 0, i32 7
  %46 = load i32, ptr %45, align 4, !tbaa !133
  %47 = load ptr, ptr %8, align 8, !tbaa !122
  %48 = getelementptr inbounds nuw %struct.b2Joint, ptr %47, i32 0, i32 7
  store i32 %46, ptr %48, align 4, !tbaa !133
  call void @llvm.lifetime.end.p0(i64 8, ptr %8) #6
  br label %49

49:                                               ; preds = %37, %32
  %50 = load ptr, ptr %6, align 8, !tbaa !72
  %51 = getelementptr inbounds nuw %struct.b2Island, ptr %50, i32 0, i32 9
  %52 = load i32, ptr %51, align 4, !tbaa !93
  %53 = load ptr, ptr %4, align 8, !tbaa !122
  %54 = getelementptr inbounds nuw %struct.b2Joint, ptr %53, i32 0, i32 5
  %55 = load i32, ptr %54, align 4, !tbaa !132
  %56 = icmp eq i32 %52, %55
  br i1 %56, label %57, label %63

57:                                               ; preds = %49
  %58 = load ptr, ptr %4, align 8, !tbaa !122
  %59 = getelementptr inbounds nuw %struct.b2Joint, ptr %58, i32 0, i32 8
  %60 = load i32, ptr %59, align 8, !tbaa !130
  %61 = load ptr, ptr %6, align 8, !tbaa !72
  %62 = getelementptr inbounds nuw %struct.b2Island, ptr %61, i32 0, i32 9
  store i32 %60, ptr %62, align 4, !tbaa !93
  br label %63

63:                                               ; preds = %57, %49
  %64 = load ptr, ptr %6, align 8, !tbaa !72
  %65 = getelementptr inbounds nuw %struct.b2Island, ptr %64, i32 0, i32 10
  %66 = load i32, ptr %65, align 4, !tbaa !94
  %67 = load ptr, ptr %4, align 8, !tbaa !122
  %68 = getelementptr inbounds nuw %struct.b2Joint, ptr %67, i32 0, i32 5
  %69 = load i32, ptr %68, align 4, !tbaa !132
  %70 = icmp eq i32 %66, %69
  br i1 %70, label %71, label %77

71:                                               ; preds = %63
  %72 = load ptr, ptr %4, align 8, !tbaa !122
  %73 = getelementptr inbounds nuw %struct.b2Joint, ptr %72, i32 0, i32 7
  %74 = load i32, ptr %73, align 4, !tbaa !133
  %75 = load ptr, ptr %6, align 8, !tbaa !72
  %76 = getelementptr inbounds nuw %struct.b2Island, ptr %75, i32 0, i32 10
  store i32 %74, ptr %76, align 4, !tbaa !94
  br label %77

77:                                               ; preds = %71, %63
  %78 = load ptr, ptr %6, align 8, !tbaa !72
  %79 = getelementptr inbounds nuw %struct.b2Island, ptr %78, i32 0, i32 11
  %80 = load i32, ptr %79, align 4, !tbaa !95
  %81 = sub nsw i32 %80, 1
  store i32 %81, ptr %79, align 4, !tbaa !95
  %82 = load ptr, ptr %6, align 8, !tbaa !72
  %83 = getelementptr inbounds nuw %struct.b2Island, ptr %82, i32 0, i32 13
  %84 = load i32, ptr %83, align 4, !tbaa !97
  %85 = add nsw i32 %84, 1
  store i32 %85, ptr %83, align 4, !tbaa !97
  %86 = load ptr, ptr %4, align 8, !tbaa !122
  %87 = getelementptr inbounds nuw %struct.b2Joint, ptr %86, i32 0, i32 6
  store i32 -1, ptr %87, align 8, !tbaa !134
  %88 = load ptr, ptr %4, align 8, !tbaa !122
  %89 = getelementptr inbounds nuw %struct.b2Joint, ptr %88, i32 0, i32 7
  store i32 -1, ptr %89, align 4, !tbaa !133
  %90 = load ptr, ptr %4, align 8, !tbaa !122
  %91 = getelementptr inbounds nuw %struct.b2Joint, ptr %90, i32 0, i32 8
  store i32 -1, ptr %91, align 8, !tbaa !130
  %92 = load ptr, ptr %3, align 8, !tbaa !19
  %93 = load i32, ptr %5, align 4, !tbaa !3
  call void @b2ValidateIsland(ptr noundef %92, i32 noundef %93)
  call void @llvm.lifetime.end.p0(i64 8, ptr %6) #6
  call void @llvm.lifetime.end.p0(i64 4, ptr %5) #6
  ret void
}