; Function Attrs: mustprogress nofree norecurse nosync nounwind willreturn memory(readwrite, inaccessiblemem: none) uwtable
define hidden void @b2UnlinkJoint(ptr noundef readonly captures(none) %0, ptr noundef captures(none) %1) local_unnamed_addr #3 {
  %3 = getelementptr inbounds nuw i8, ptr %1, i64 48
  %4 = load i32, ptr %3, align 8, !tbaa !119
  %5 = getelementptr inbounds nuw i8, ptr %0, i64 1192
  %.val = load ptr, ptr %5, align 8, !tbaa !10
  %6 = sext i32 %4 to i64
  %7 = getelementptr inbounds %struct.b2Island, ptr %.val, i64 %6
  %8 = getelementptr inbounds nuw i8, ptr %1, i64 52
  %9 = load i32, ptr %8, align 4, !tbaa !118
  %.not = icmp eq i32 %9, -1
  br i1 %.not, label %._crit_edge, label %10

._crit_edge:                                      ; preds = %2
  %.phi.trans.insert = getelementptr inbounds nuw i8, ptr %1, i64 56
  %.pre = load i32, ptr %.phi.trans.insert, align 8, !tbaa !116
  br label %16

10:                                               ; preds = %2
  %11 = getelementptr inbounds nuw i8, ptr %0, i64 1112
  %.val29 = load ptr, ptr %11, align 8, !tbaa !117
  %12 = sext i32 %9 to i64
  %13 = getelementptr inbounds nuw i8, ptr %1, i64 56
  %14 = load i32, ptr %13, align 8, !tbaa !116
  %15 = getelementptr inbounds %struct.b2Joint, ptr %.val29, i64 %12, i32 8
  store i32 %14, ptr %15, align 8, !tbaa !116
  br label %16

16:                                               ; preds = %._crit_edge, %10
  %17 = phi i32 [ %.pre, %._crit_edge ], [ %14, %10 ]
  %.not28 = icmp eq i32 %17, -1
  br i1 %.not28, label %22, label %18

18:                                               ; preds = %16
  %19 = getelementptr inbounds nuw i8, ptr %0, i64 1112
  %.val30 = load ptr, ptr %19, align 8, !tbaa !117
  %20 = sext i32 %17 to i64
  %21 = getelementptr inbounds %struct.b2Joint, ptr %.val30, i64 %20, i32 7
  store i32 %9, ptr %21, align 4, !tbaa !118
  br label %22

22:                                               ; preds = %18, %16
  %23 = getelementptr inbounds nuw i8, ptr %7, i64 36
  %24 = load i32, ptr %23, align 4, !tbaa !87
  %25 = getelementptr inbounds nuw i8, ptr %1, i64 44
  %26 = load i32, ptr %25, align 4, !tbaa !114
  %27 = icmp eq i32 %24, %26
  br i1 %27, label %28, label %29

28:                                               ; preds = %22
  store i32 %17, ptr %23, align 4, !tbaa !87
  br label %29

29:                                               ; preds = %28, %22
  %30 = getelementptr inbounds nuw i8, ptr %7, i64 40
  %31 = load i32, ptr %30, align 4, !tbaa !88
  %32 = icmp eq i32 %31, %26
  br i1 %32, label %33, label %35

33:                                               ; preds = %29
  %34 = load i32, ptr %8, align 4, !tbaa !118
  store i32 %34, ptr %30, align 4, !tbaa !88
  br label %35

35:                                               ; preds = %33, %29
  %36 = getelementptr inbounds nuw i8, ptr %1, i64 56
  %37 = getelementptr inbounds nuw i8, ptr %7, i64 44
  %38 = load i32, ptr %37, align 4, !tbaa !89
  %39 = add nsw i32 %38, -1
  store i32 %39, ptr %37, align 4, !tbaa !89
  %40 = getelementptr inbounds nuw i8, ptr %7, i64 52
  %41 = load i32, ptr %40, align 4, !tbaa !91
  %42 = add nsw i32 %41, 1
  store i32 %42, ptr %40, align 4, !tbaa !91
  store i32 -1, ptr %3, align 8, !tbaa !119
  store i32 -1, ptr %8, align 4, !tbaa !118
  store i32 -1, ptr %36, align 8, !tbaa !116
  ret void
}